; Function Attrs: nounwind uwtable
define noalias nonnull ptr @l_Lake_EquipT_instAlternative___rarg(ptr noundef %0) #0 {
  %2 = getelementptr inbounds nuw i8, ptr %0, i64 8
  %3 = load ptr, ptr %2, align 8, !tbaa !10
  %4 = ptrtoint ptr %3 to i64
  %5 = and i64 %4, 1
  %.not = icmp eq i64 %5, 0
  br i1 %.not, label %6, label %lean_inc.exit15

6:                                                ; preds = %1
  %.val.i = load i32, ptr %3, align 4, !tbaa !4
  %7 = icmp sgt i32 %.val.i, 0
  br i1 %7, label %8, label %10, !prof !9

8:                                                ; preds = %6
  %9 = add nuw i32 %.val.i, 1
  store i32 %9, ptr %3, align 4, !tbaa !4
  br label %lean_inc.exit15

10:                                               ; preds = %6
  %.not.i = icmp eq i32 %.val.i, 0
  br i1 %.not.i, label %lean_inc.exit15, label %11

11:                                               ; preds = %10
  tail call void @lean_inc_ref_cold(ptr noundef nonnull %3) #4
  br label %lean_inc.exit15

lean_inc.exit15:                                  ; preds = %11, %10, %8, %1
  %12 = tail call ptr @l_Lake_EquipT_instApplicative___rarg(ptr noundef %3)
  %13 = ptrtoint ptr %0 to i64
  %14 = and i64 %13, 1
  %.not20 = icmp eq i64 %14, 0
  br i1 %.not20, label %15, label %lean_inc.exit

15:                                               ; preds = %lean_inc.exit15
  %.val.i16 = load i32, ptr %0, align 4, !tbaa !4
  %16 = icmp sgt i32 %.val.i16, 0
  br i1 %16, label %17, label %19, !prof !9

17:                                               ; preds = %15
  %18 = add nuw i32 %.val.i16, 1
  store i32 %18, ptr %0, align 4, !tbaa !4
  br label %lean_inc.exit

19:                                               ; preds = %15
  %.not.i17 = icmp eq i32 %.val.i16, 0
  br i1 %.not.i17, label %lean_inc.exit, label %20

20:                                               ; preds = %19
  tail call void @lean_inc_ref_cold(ptr noundef nonnull %0) #4
  br label %lean_inc.exit

lean_inc.exit:                                    ; preds = %20, %19, %17, %lean_inc.exit15
  tail call void @lean_inc_heartbeat() #4
  %21 = tail call noalias ptr @mi_malloc_small(i64 noundef 32) #4
  %22 = icmp eq ptr %21, null
  br i1 %22, label %23, label %lean_alloc_closure.exit

23:                                               ; preds = %lean_inc.exit
  tail call void @lean_internal_panic_out_of_memory() #5
  unreachable

lean_alloc_closure.exit:                          ; preds = %lean_inc.exit
  %24 = getelementptr inbounds nuw i8, ptr %21, i64 4
  store i32 1, ptr %21, align 4, !tbaa !4
  store i32 -184549344, ptr %24, align 4
  %25 = getelementptr inbounds nuw i8, ptr %21, i64 8
  store ptr @l_Lake_EquipT_failure___rarg___boxed, ptr %25, align 8, !tbaa !10
  %26 = getelementptr inbounds nuw i8, ptr %21, i64 16
  store i16 3, ptr %26, align 8, !tbaa !12
  %27 = getelementptr inbounds nuw i8, ptr %21, i64 18
  store i16 1, ptr %27, align 2, !tbaa !12
  %28 = getelementptr inbounds nuw i8, ptr %21, i64 24
  store ptr %0, ptr %28, align 8, !tbaa !10
  tail call void @lean_inc_heartbeat() #4
  %29 = tail call noalias ptr @mi_malloc_small(i64 noundef 32) #4
  %30 = icmp eq ptr %29, null
  br i1 %30, label %31, label %lean_alloc_closure.exit19

31:                                               ; preds = %lean_alloc_closure.exit
  tail call void @lean_internal_panic_out_of_memory() #5
  unreachable

lean_alloc_closure.exit19:                        ; preds = %lean_alloc_closure.exit
  %32 = getelementptr inbounds nuw i8, ptr %29, i64 4
  store i32 1, ptr %29, align 4, !tbaa !4
  store i32 -184549344, ptr %32, align 4
  %33 = getelementptr inbounds nuw i8, ptr %29, i64 8
  store ptr @l_Lake_EquipT_orElse___rarg, ptr %33, align 8, !tbaa !10
  %34 = getelementptr inbounds nuw i8, ptr %29, i64 16
  store i16 5, ptr %34, align 8, !tbaa !12
  %35 = getelementptr inbounds nuw i8, ptr %29, i64 18
  store i16 1, ptr %35, align 2, !tbaa !12
  %36 = getelementptr inbounds nuw i8, ptr %29, i64 24
  store ptr %0, ptr %36, align 8, !tbaa !10
  tail call void @lean_inc_heartbeat() #4
  %37 = tail call noalias ptr @mi_malloc_small(i64 noundef 32) #4
  %38 = icmp eq ptr %37, null
  br i1 %38, label %39, label %lean_alloc_ctor.exit

39:                                               ; preds = %lean_alloc_closure.exit19
  tail call void @lean_internal_panic_out_of_memory() #5
  unreachable

lean_alloc_ctor.exit:                             ; preds = %lean_alloc_closure.exit19
  %40 = getelementptr inbounds nuw i8, ptr %37, i64 4
  store i32 1, ptr %37, align 4, !tbaa !4
  store i32 196640, ptr %40, align 4
  %41 = getelementptr inbounds nuw i8, ptr %37, i64 8
  store ptr %12, ptr %41, align 8, !tbaa !10
  %42 = getelementptr inbounds nuw i8, ptr %37, i64 16
  store ptr %21, ptr %42, align 8, !tbaa !10
  %43 = getelementptr inbounds nuw i8, ptr %37, i64 24
  store ptr %29, ptr %43, align 8, !tbaa !10
  ret ptr %37
}